; ModuleID = '24/2550.c'
source_filename = "24/2550.c"
target datalayout = "e-m:e-p270:32:32-p271:32:32-p272:64:64-i64:64-f80:128-n8:16:32:64-S128"
target triple = "x86_64-pc-linux-gnu"

@.str = private unnamed_addr constant [3 x i8] c"%d\00", align 1
@.str.1 = private unnamed_addr constant [3 x i8] c"%s\00", align 1
@.str.2 = private unnamed_addr constant [4 x i8] c"%s\0A\00", align 1

; Function Attrs: noinline nounwind uwtable
define dso_local i32 @main() #0 {
  %1 = alloca i32, align 4
  %2 = alloca [200 x i8], align 16
  %3 = alloca [200 x i8], align 16
  %4 = alloca [200 x i8], align 16
  %5 = alloca i32, align 4
  %6 = alloca i32, align 4
  %7 = alloca i32, align 4
  %8 = alloca i32, align 4
  store i32 0, i32* %1, align 4
  %9 = call i32 (i8*, ...) @__isoc99_scanf(i8* getelementptr inbounds ([3 x i8], [3 x i8]* @.str, i64 0, i64 0), i32* %5)
  %10 = getelementptr inbounds [200 x i8], [200 x i8]* %2, i64 0, i64 0
  %11 = call i32 (i8*, ...) @__isoc99_scanf(i8* getelementptr inbounds ([3 x i8], [3 x i8]* @.str.1, i64 0, i64 0), i8* %10)
  %12 = getelementptr inbounds [200 x i8], [200 x i8]* %3, i64 0, i64 0
  %13 = getelementptr inbounds [200 x i8], [200 x i8]* %2, i64 0, i64 0
  %14 = call i8* @strcpy(i8* %12, i8* %13) #4
  %15 = getelementptr inbounds [200 x i8], [200 x i8]* %4, i64 0, i64 0
  %16 = getelementptr inbounds [200 x i8], [200 x i8]* %2, i64 0, i64 0
  %17 = call i8* @strcpy(i8* %15, i8* %16) #4
  store i32 0, i32* %6, align 4
  br label %18

18:                                               ; preds = %46, %0
  %19 = load i32, i32* %6, align 4
  %20 = load i32, i32* %5, align 4
  %21 = sub nsw i32 %20, 1
  %22 = icmp slt i32 %19, %21
  br i1 %22, label %23, label %49

23:                                               ; preds = %18
  %24 = getelementptr inbounds [200 x i8], [200 x i8]* %2, i64 0, i64 0
  %25 = call i32 (i8*, ...) @__isoc99_scanf(i8* getelementptr inbounds ([3 x i8], [3 x i8]* @.str.1, i64 0, i64 0), i8* %24)
  %26 = getelementptr inbounds [200 x i8], [200 x i8]* %2, i64 0, i64 0
  %27 = call i64 @strlen(i8* %26) #5
  %28 = getelementptr inbounds [200 x i8], [200 x i8]* %3, i64 0, i64 0
  %29 = call i64 @strlen(i8* %28) #5
  %30 = icmp ugt i64 %27, %29
  br i1 %30, label %31, label %35

31:                                               ; preds = %23
  %32 = getelementptr inbounds [200 x i8], [200 x i8]* %3, i64 0, i64 0
  %33 = getelementptr inbounds [200 x i8], [200 x i8]* %2, i64 0, i64 0
  %34 = call i8* @strcpy(i8* %32, i8* %33) #4
  br label %35

35:                                               ; preds = %31, %23
  %36 = getelementptr inbounds [200 x i8], [200 x i8]* %2, i64 0, i64 0
  %37 = call i64 @strlen(i8* %36) #5
  %38 = getelementptr inbounds [200 x i8], [200 x i8]* %4, i64 0, i64 0
  %39 = call i64 @strlen(i8* %38) #5
  %40 = icmp ult i64 %37, %39
  br i1 %40, label %41, label %45

41:                                               ; preds = %35
  %42 = getelementptr inbounds [200 x i8], [200 x i8]* %4, i64 0, i64 0
  %43 = getelementptr inbounds [200 x i8], [200 x i8]* %2, i64 0, i64 0
  %44 = call i8* @strcpy(i8* %42, i8* %43) #4
  br label %45

45:                                               ; preds = %41, %35
  br label %46

46:                                               ; preds = %45
  %47 = load i32, i32* %6, align 4
  %48 = add nsw i32 %47, 1
  store i32 %48, i32* %6, align 4
  br label %18

49:                                               ; preds = %18
  %50 = getelementptr inbounds [200 x i8], [200 x i8]* %3, i64 0, i64 0
  %51 = call i32 (i8*, ...) @printf(i8* getelementptr inbounds ([4 x i8], [4 x i8]* @.str.2, i64 0, i64 0), i8* %50)
  %52 = getelementptr inbounds [200 x i8], [200 x i8]* %4, i64 0, i64 0
  %53 = call i32 (i8*, ...) @printf(i8* getelementptr inbounds ([4 x i8], [4 x i8]* @.str.2, i64 0, i64 0), i8* %52)
  ret i32 0
}

declare dso_local i32 @__isoc99_scanf(i8*, ...) #1

; Function Attrs: nounwind
declare dso_local i8* @strcpy(i8*, i8*) #2

; Function Attrs: nounwind readonly
declare dso_local i64 @strlen(i8*) #3

declare dso_local i32 @printf(i8*, ...) #1


!llvm.module.flags = !{!0}
!llvm.ident = !{!1}

!0 = !{i32 1, !"wchar_size", i32 4}
!1 = !{!"clang version 10.0.0-4ubuntu1 "}
